target datalayout = "e-m:e-p270:32:32-p271:32:32-p272:64:64-i64:64-i128:128-f80:128-n8:16:32:64-S128"
target triple = "x86_64-pc-linux-gnu"

%struct.STable = type { i32, i32, i32, ptr }
%struct.SEntry = type { ptr, ptr }

@.str.208 = private unnamed_addr constant [36 x i8] c"FATAL ERROR %s -> in %s @ in %s:%d \00", align 1
@.str.209 = private unnamed_addr constant [45 x i8] c"Table size too large, exceeded max hash size\00", align 1
@__func__.stable_resize = private unnamed_addr constant [14 x i8] c"stable_resize\00", align 1
@.str.210 = private unnamed_addr constant [107 x i8] c"generated/home/dtcxzyw/WorkSpace/Projects/compilers/llvm-opt-benchmark/bench/c3c/c3c/src/compiler/symtab.c\00", align 1

; Function Attrs: nounwind uwtable
define internal void @stable_resize(ptr noundef %0) #0 {
  %2 = alloca ptr, align 8
  %3 = alloca i32, align 4
  %4 = alloca ptr, align 8
  %5 = alloca i32, align 4
  %6 = alloca i32, align 4
  %7 = alloca ptr, align 8
  %8 = alloca ptr, align 8
  %9 = alloca ptr, align 8
  store ptr %0, ptr %2, align 8
  br label %10

10:                                               ; preds = %18, %1
  %11 = load ptr, ptr %2, align 8
  %12 = getelementptr inbounds %struct.STable, ptr %11, i32 0, i32 1
  %13 = load i32, ptr %12, align 4
  %14 = icmp ult i32 %13, 536870912
  %15 = xor i1 %14, true
  br i1 %15, label %16, label %19

16:                                               ; preds = %10
  br label %17

17:                                               ; preds = %16
  call void (ptr, ...) @error_exit(ptr noundef @.str.208, ptr noundef @.str.209, ptr noundef @__func__.stable_resize, ptr noundef @.str.210, i32 noundef 465) #8
  unreachable

18:                                               ; No predecessors!
  br label %10, !llvm.loop !16

19:                                               ; preds = %10
  %20 = load ptr, ptr %2, align 8
  %21 = getelementptr inbounds %struct.STable, ptr %20, i32 0, i32 1
  %22 = load i32, ptr %21, align 4
  %23 = icmp ne i32 %22, 0
  br i1 %23, label %24, label %29

24:                                               ; preds = %19
  %25 = load ptr, ptr %2, align 8
  %26 = getelementptr inbounds %struct.STable, ptr %25, i32 0, i32 1
  %27 = load i32, ptr %26, align 4
  %28 = shl i32 %27, 2
  br label %30

29:                                               ; preds = %19
  br label %30

30:                                               ; preds = %29, %24
  %31 = phi i32 [ %28, %24 ], [ 16, %29 ]
  store i32 %31, ptr %3, align 4
  %32 = load i32, ptr %3, align 4
  %33 = zext i32 %32 to i64
  %34 = mul i64 %33, 16
  %35 = call ptr @calloc_arena(i64 noundef %34)
  store ptr %35, ptr %4, align 8
  %36 = load ptr, ptr %2, align 8
  %37 = getelementptr inbounds %struct.STable, ptr %36, i32 0, i32 0
  store i32 0, ptr %37, align 8
  %38 = load ptr, ptr %2, align 8
  %39 = getelementptr inbounds %struct.STable, ptr %38, i32 0, i32 1
  %40 = load i32, ptr %39, align 4
  store i32 %40, ptr %5, align 4
  store i32 0, ptr %6, align 4
  br label %41

41:                                               ; preds = %75, %30
  %42 = load i32, ptr %6, align 4
  %43 = load i32, ptr %5, align 4
  %44 = icmp ult i32 %42, %43
  br i1 %44, label %45, label %78

45:                                               ; preds = %41
  %46 = load ptr, ptr %2, align 8
  %47 = getelementptr inbounds %struct.STable, ptr %46, i32 0, i32 3
  %48 = load ptr, ptr %47, align 8
  %49 = load i32, ptr %6, align 4
  %50 = zext i32 %49 to i64
  %51 = getelementptr inbounds %struct.SEntry, ptr %48, i64 %50
  store ptr %51, ptr %7, align 8
  %52 = load ptr, ptr %7, align 8
  %53 = getelementptr inbounds %struct.SEntry, ptr %52, i32 0, i32 0
  %54 = load ptr, ptr %53, align 8
  store ptr %54, ptr %8, align 8
  %55 = load ptr, ptr %8, align 8
  %56 = icmp ne ptr %55, null
  br i1 %56, label %58, label %57

57:                                               ; preds = %45
  br label %75

58:                                               ; preds = %45
  %59 = load ptr, ptr %2, align 8
  %60 = getelementptr inbounds %struct.STable, ptr %59, i32 0, i32 0
  %61 = load i32, ptr %60, align 8
  %62 = add i32 %61, 1
  store i32 %62, ptr %60, align 8
  %63 = load ptr, ptr %4, align 8
  %64 = load i32, ptr %3, align 4
  %65 = load ptr, ptr %8, align 8
  %66 = call ptr @sentry_find(ptr noundef %63, i32 noundef %64, ptr noundef %65)
  store ptr %66, ptr %9, align 8
  %67 = load ptr, ptr %8, align 8
  %68 = load ptr, ptr %9, align 8
  %69 = getelementptr inbounds %struct.SEntry, ptr %68, i32 0, i32 0
  store ptr %67, ptr %69, align 8
  %70 = load ptr, ptr %7, align 8
  %71 = getelementptr inbounds %struct.SEntry, ptr %70, i32 0, i32 1
  %72 = load ptr, ptr %71, align 8
  %73 = load ptr, ptr %9, align 8
  %74 = getelementptr inbounds %struct.SEntry, ptr %73, i32 0, i32 1
  store ptr %72, ptr %74, align 8
  br label %75

75:                                               ; preds = %58, %57
  %76 = load i32, ptr %6, align 4
  %77 = add i32 %76, 1
  store i32 %77, ptr %6, align 4
  br label %41, !llvm.loop !17

78:                                               ; preds = %41
  %79 = load ptr, ptr %4, align 8
  %80 = load ptr, ptr %2, align 8
  %81 = getelementptr inbounds %struct.STable, ptr %80, i32 0, i32 3
  store ptr %79, ptr %81, align 8
  %82 = load i32, ptr %3, align 4
  %83 = uitofp i32 %82 to double
  %84 = fmul double %83, 5.000000e-01
  %85 = fptoui double %84 to i32
  %86 = load ptr, ptr %2, align 8
  %87 = getelementptr inbounds %struct.STable, ptr %86, i32 0, i32 2
  store i32 %85, ptr %87, align 8
  %88 = load i32, ptr %3, align 4
  %89 = load ptr, ptr %2, align 8
  %90 = getelementptr inbounds %struct.STable, ptr %89, i32 0, i32 1
  store i32 %88, ptr %90, align 4
  ret void
}

; Function Attrs: nounwind uwtable
define internal ptr @sentry_find(ptr noundef %0, i32 noundef %1, ptr noundef %2) #0 {
  %4 = alloca ptr, align 8
  %5 = alloca i32, align 4
  %6 = alloca ptr, align 8
  %7 = alloca i64, align 8
  %8 = alloca i32, align 4
  %9 = alloca i32, align 4
  %10 = alloca ptr, align 8
  store ptr %0, ptr %4, align 8
  store i32 %1, ptr %5, align 4
  store ptr %2, ptr %6, align 8
  %11 = load ptr, ptr %6, align 8
  %12 = ptrtoint ptr %11 to i64
  store i64 %12, ptr %7, align 8
  %13 = load i32, ptr %5, align 4
  %14 = sub i32 %13, 1
  store i32 %14, ptr %8, align 4
  %15 = load i64, ptr %7, align 8
  %16 = lshr i64 %15, 16
  %17 = load i64, ptr %7, align 8
  %18 = xor i64 %17, %16
  store i64 %18, ptr %7, align 8
  %19 = load i64, ptr %7, align 8
  %20 = trunc i64 %19 to i32
  %21 = load i32, ptr %8, align 4
  %22 = and i32 %20, %21
  store i32 %22, ptr %9, align 4
  br label %23

23:                                               ; preds = %40, %3
  %24 = load ptr, ptr %4, align 8
  %25 = load i32, ptr %9, align 4
  %26 = zext i32 %25 to i64
  %27 = getelementptr inbounds %struct.SEntry, ptr %24, i64 %26
  store ptr %27, ptr %10, align 8
  %28 = load ptr, ptr %10, align 8
  %29 = getelementptr inbounds %struct.SEntry, ptr %28, i32 0, i32 0
  %30 = load ptr, ptr %29, align 8
  %31 = load ptr, ptr %6, align 8
  %32 = icmp eq ptr %30, %31
  br i1 %32, label %38, label %33

33:                                               ; preds = %23
  %34 = load ptr, ptr %10, align 8
  %35 = getelementptr inbounds %struct.SEntry, ptr %34, i32 0, i32 0
  %36 = load ptr, ptr %35, align 8
  %37 = icmp ne ptr %36, null
  br i1 %37, label %40, label %38

38:                                               ; preds = %33, %23
  %39 = load ptr, ptr %10, align 8
  ret ptr %39

40:                                               ; preds = %33
  %41 = load i32, ptr %9, align 4
  %42 = add i32 %41, 1
  %43 = load i32, ptr %8, align 4
  %44 = and i32 %42, %43
  store i32 %44, ptr %9, align 4
  br label %23
}

; Function Attrs: nounwind uwtable
define dso_local ptr @stable_set(ptr noundef %0, ptr noundef %1, ptr noundef %2) #0 {
  %4 = alloca ptr, align 8
  %5 = alloca ptr, align 8
  %6 = alloca ptr, align 8
  %7 = alloca ptr, align 8
  %8 = alloca ptr, align 8
  %9 = alloca ptr, align 8
  store ptr %0, ptr %5, align 8
  store ptr %1, ptr %6, align 8
  store ptr %2, ptr %7, align 8
  %10 = load ptr, ptr %5, align 8
  %11 = getelementptr inbounds %struct.STable, ptr %10, i32 0, i32 3
  %12 = load ptr, ptr %11, align 8
  %13 = load ptr, ptr %5, align 8
  %14 = getelementptr inbounds %struct.STable, ptr %13, i32 0, i32 1
  %15 = load i32, ptr %14, align 4
  %16 = load ptr, ptr %6, align 8
  %17 = call ptr @sentry_find(ptr noundef %12, i32 noundef %15, ptr noundef %16)
  store ptr %17, ptr %8, align 8
  %18 = load ptr, ptr %8, align 8
  %19 = getelementptr inbounds %struct.SEntry, ptr %18, i32 0, i32 1
  %20 = load ptr, ptr %19, align 8
  store ptr %20, ptr %9, align 8
  %21 = load ptr, ptr %9, align 8
  %22 = load ptr, ptr %7, align 8
  %23 = icmp eq ptr %21, %22
  br i1 %23, label %24, label %26

24:                                               ; preds = %3
  %25 = load ptr, ptr %9, align 8
  store ptr %25, ptr %4, align 8
  br label %54

26:                                               ; preds = %3
  %27 = load ptr, ptr %6, align 8
  %28 = load ptr, ptr %8, align 8
  %29 = getelementptr inbounds %struct.SEntry, ptr %28, i32 0, i32 0
  store ptr %27, ptr %29, align 8
  %30 = load ptr, ptr %7, align 8
  %31 = load ptr, ptr %8, align 8
  %32 = getelementptr inbounds %struct.SEntry, ptr %31, i32 0, i32 1
  store ptr %30, ptr %32, align 8
  %33 = load ptr, ptr %9, align 8
  %34 = icmp ne ptr %33, null
  br i1 %34, label %49, label %35

35:                                               ; preds = %26
  %36 = load ptr, ptr %5, align 8
  %37 = getelementptr inbounds %struct.STable, ptr %36, i32 0, i32 0
  %38 = load i32, ptr %37, align 8
  %39 = add i32 %38, 1
  store i32 %39, ptr %37, align 8
  %40 = load ptr, ptr %5, align 8
  %41 = getelementptr inbounds %struct.STable, ptr %40, i32 0, i32 0
  %42 = load i32, ptr %41, align 8
  %43 = load ptr, ptr %5, align 8
  %44 = getelementptr inbounds %struct.STable, ptr %43, i32 0, i32 2
  %45 = load i32, ptr %44, align 8
  %46 = icmp uge i32 %42, %45
  br i1 %46, label %47, label %48

47:                                               ; preds = %35
  br label %51

48:                                               ; preds = %35
  br label %49

49:                                               ; preds = %48, %26
  %50 = load ptr, ptr %9, align 8
  store ptr %50, ptr %4, align 8
  br label %54

51:                                               ; preds = %47
  %52 = load ptr, ptr %5, align 8
  call void @stable_resize(ptr noundef %52)
  %53 = load ptr, ptr %9, align 8
  store ptr %53, ptr %4, align 8
  br label %54

54:                                               ; preds = %51, %49, %24
  %55 = load ptr, ptr %4, align 8
  ret ptr %55
}