; Function Attrs: nounwind uwtable
define dso_local ptr @stable_set(ptr nocapture noundef %0, ptr noundef %1, ptr noundef %2) local_unnamed_addr #2 {
  %4 = getelementptr inbounds i8, ptr %0, i64 16
  %5 = load ptr, ptr %4, align 8
  %6 = getelementptr inbounds i8, ptr %0, i64 4
  %7 = load i32, ptr %6, align 4
  %8 = ptrtoint ptr %1 to i64
  %9 = add i32 %7, -1
  %10 = lshr i64 %8, 16
  %11 = xor i64 %10, %8
  %12 = trunc i64 %11 to i32
  %13 = and i32 %9, %12
  %14 = zext i32 %13 to i64
  %15 = getelementptr inbounds %struct.SEntry, ptr %5, i64 %14
  %16 = load ptr, ptr %15, align 8
  %17 = icmp eq ptr %16, %1
  %.not14.i = icmp eq ptr %16, null
  %or.cond15.i = or i1 %17, %.not14.i
  br i1 %or.cond15.i, label %sentry_find.exit, label %.lr.ph.i

.lr.ph.i:                                         ; preds = %3, %.lr.ph.i
  %.016.i = phi i32 [ %19, %.lr.ph.i ], [ %13, %3 ]
  %18 = add i32 %.016.i, 1
  %19 = and i32 %18, %9
  %20 = zext i32 %19 to i64
  %21 = getelementptr inbounds %struct.SEntry, ptr %5, i64 %20
  %22 = load ptr, ptr %21, align 8
  %23 = icmp eq ptr %22, %1
  %.not.i = icmp eq ptr %22, null
  %or.cond.i = or i1 %23, %.not.i
  br i1 %or.cond.i, label %sentry_find.exit, label %.lr.ph.i

sentry_find.exit:                                 ; preds = %.lr.ph.i, %3
  %.lcssa.i = phi ptr [ %15, %3 ], [ %21, %.lr.ph.i ]
  %24 = getelementptr inbounds i8, ptr %.lcssa.i, i64 8
  %25 = load ptr, ptr %24, align 8
  %26 = icmp eq ptr %25, %2
  br i1 %26, label %73, label %27

27:                                               ; preds = %sentry_find.exit
  store ptr %1, ptr %.lcssa.i, align 8
  store ptr %2, ptr %24, align 8
  %.not = icmp eq ptr %25, null
  br i1 %.not, label %28, label %73

28:                                               ; preds = %27
  %29 = load i32, ptr %0, align 8
  %30 = add i32 %29, 1
  store i32 %30, ptr %0, align 8
  %31 = getelementptr inbounds i8, ptr %0, i64 8
  %32 = load i32, ptr %31, align 8
  %.not20 = icmp ult i32 %30, %32
  br i1 %.not20, label %73, label %33

33:                                               ; preds = %28
  %34 = load i32, ptr %6, align 4
  %35 = icmp ugt i32 %34, 536870911
  br i1 %35, label %36, label %37

36:                                               ; preds = %33
  tail call void (ptr, ...) @error_exit(ptr noundef nonnull @.str.208, ptr noundef nonnull @.str.209, ptr noundef nonnull @__func__.stable_resize, ptr noundef nonnull @.str.210, i32 noundef 465) #13
  unreachable

37:                                               ; preds = %33
  %.not.i21 = icmp eq i32 %34, 0
  %38 = shl nuw nsw i32 %34, 2
  %spec.select.i = select i1 %.not.i21, i32 16, i32 %38
  %39 = zext nneg i32 %spec.select.i to i64
  %40 = shl nuw nsw i64 %39, 4
  %41 = tail call ptr @calloc_arena(i64 noundef %40) #12
  store i32 0, ptr %0, align 8
  %42 = load i32, ptr %6, align 4
  %.not30.i = icmp eq i32 %42, 0
  br i1 %.not30.i, label %stable_resize.exit, label %.lr.ph.i22

.lr.ph.i22:                                       ; preds = %37
  %43 = add nsw i32 %spec.select.i, -1
  %wide.trip.count.i = zext i32 %42 to i64
  br label %44

44:                                               ; preds = %69, %.lr.ph.i22
  %indvars.iv.i = phi i64 [ 0, %.lr.ph.i22 ], [ %indvars.iv.next.i, %69 ]
  %45 = load ptr, ptr %4, align 8
  %46 = getelementptr inbounds %struct.SEntry, ptr %45, i64 %indvars.iv.i
  %47 = load ptr, ptr %46, align 8
  %.not28.i = icmp eq ptr %47, null
  br i1 %.not28.i, label %69, label %48

48:                                               ; preds = %44
  %49 = load i32, ptr %0, align 8
  %50 = add i32 %49, 1
  store i32 %50, ptr %0, align 8
  %51 = ptrtoint ptr %47 to i64
  %52 = lshr i64 %51, 16
  %53 = xor i64 %52, %51
  %54 = trunc i64 %53 to i32
  %55 = and i32 %43, %54
  %56 = zext i32 %55 to i64
  %57 = getelementptr inbounds %struct.SEntry, ptr %41, i64 %56
  %58 = load ptr, ptr %57, align 8
  %59 = icmp eq ptr %58, %47
  %.not14.i.i = icmp eq ptr %58, null
  %or.cond15.i.i = or i1 %59, %.not14.i.i
  br i1 %or.cond15.i.i, label %sentry_find.exit.i, label %.lr.ph.i.i

.lr.ph.i.i:                                       ; preds = %48, %.lr.ph.i.i
  %.016.i.i = phi i32 [ %61, %.lr.ph.i.i ], [ %55, %48 ]
  %60 = add i32 %.016.i.i, 1
  %61 = and i32 %60, %43
  %62 = zext i32 %61 to i64
  %63 = getelementptr inbounds %struct.SEntry, ptr %41, i64 %62
  %64 = load ptr, ptr %63, align 8
  %65 = icmp eq ptr %64, %47
  %.not.i.i = icmp eq ptr %64, null
  %or.cond.i.i = or i1 %65, %.not.i.i
  br i1 %or.cond.i.i, label %sentry_find.exit.i, label %.lr.ph.i.i

sentry_find.exit.i:                               ; preds = %.lr.ph.i.i, %48
  %.lcssa.i.i = phi ptr [ %57, %48 ], [ %63, %.lr.ph.i.i ]
  store ptr %47, ptr %.lcssa.i.i, align 8
  %66 = getelementptr inbounds i8, ptr %46, i64 8
  %67 = load ptr, ptr %66, align 8
  %68 = getelementptr inbounds i8, ptr %.lcssa.i.i, i64 8
  store ptr %67, ptr %68, align 8
  br label %69

69:                                               ; preds = %sentry_find.exit.i, %44
  %indvars.iv.next.i = add nuw nsw i64 %indvars.iv.i, 1
  %exitcond.not.i = icmp eq i64 %indvars.iv.next.i, %wide.trip.count.i
  br i1 %exitcond.not.i, label %stable_resize.exit, label %44, !llvm.loop !12

stable_resize.exit:                               ; preds = %69, %37
  store ptr %41, ptr %4, align 8
  %70 = uitofp nneg i32 %spec.select.i to double
  %71 = fmul double %70, 5.000000e-01
  %72 = fptoui double %71 to i32
  store i32 %72, ptr %31, align 8
  store i32 %spec.select.i, ptr %6, align 4
  br label %73

73:                                               ; preds = %27, %28, %sentry_find.exit, %stable_resize.exit
  ret ptr %25
}